target datalayout = "e-m:e-p270:32:32-p271:32:32-p272:64:64-i64:64-i128:128-f80:128-n8:16:32:64-S128"
target triple = "x86_64-pc-linux-gnu"

%struct.Map_NodeStruct_t_ = type { ptr, ptr, i32, i32, i32, i32, [3 x i32], [3 x float], float, ptr, ptr, ptr, ptr, [2 x %struct.Map_TimeStruct_t_], [2 x %struct.Map_TimeStruct_t_], [2 x ptr], ptr, ptr, ptr }
%struct.Map_TimeStruct_t_ = type { float, float, float }
%struct.Map_ManStruct_t_ = type { ptr, i32, ptr, i32, ptr, i32, i32, ptr, ptr, ptr, ptr, ptr, ptr, ptr, ptr, i32, i32, i32, i32, float, float, float, float, i32, i32, float, i32, i32, i32, i32, ptr, [6 x [2 x i32]], [10 x [32 x i32]], [32 x i32], [32 x i32], ptr, ptr, ptr, ptr, ptr, ptr, i32, i32, i32, i32, i32, i32, i64, i64, i64, i64, i64, i64, i64, i64, i64, i64, i64 }

; Function Attrs: nounwind uwtable
define i32 @Map_MappingUpdateLevel_rec(ptr noundef %0, ptr noundef %1, i32 noundef %2) #0 {
  %4 = alloca i32, align 4
  %5 = alloca ptr, align 8
  %6 = alloca ptr, align 8
  %7 = alloca i32, align 4
  %8 = alloca ptr, align 8
  %9 = alloca i32, align 4
  %10 = alloca i32, align 4
  %11 = alloca i32, align 4
  %12 = alloca i32, align 4
  store ptr %0, ptr %5, align 8, !tbaa !20
  store ptr %1, ptr %6, align 8, !tbaa !3
  store i32 %2, ptr %7, align 4, !tbaa !10
  call void @llvm.lifetime.start.p0(i64 8, ptr %8) #4
  call void @llvm.lifetime.start.p0(i64 4, ptr %9) #4
  call void @llvm.lifetime.start.p0(i64 4, ptr %10) #4
  call void @llvm.lifetime.start.p0(i64 4, ptr %11) #4
  %13 = load ptr, ptr %6, align 8, !tbaa !3
  %14 = call i32 @Map_NodeIsAnd(ptr noundef %13)
  %15 = icmp ne i32 %14, 0
  br i1 %15, label %22, label %16

16:                                               ; preds = %3
  %17 = load ptr, ptr %6, align 8, !tbaa !3
  %18 = getelementptr inbounds nuw %struct.Map_NodeStruct_t_, ptr %17, i32 0, i32 5
  %19 = load i32, ptr %18, align 4
  %20 = lshr i32 %19, 5
  %21 = and i32 %20, 65535
  store i32 %21, ptr %4, align 4
  store i32 1, ptr %12, align 4
  br label %163

22:                                               ; preds = %3
  %23 = load ptr, ptr %6, align 8, !tbaa !3
  %24 = getelementptr inbounds nuw %struct.Map_NodeStruct_t_, ptr %23, i32 0, i32 3
  %25 = load i32, ptr %24, align 4, !tbaa !98
  %26 = load ptr, ptr %5, align 8, !tbaa !20
  %27 = getelementptr inbounds nuw %struct.Map_ManStruct_t_, ptr %26, i32 0, i32 26
  %28 = load i32, ptr %27, align 4, !tbaa !99
  %29 = icmp eq i32 %25, %28
  br i1 %29, label %30, label %36

30:                                               ; preds = %22
  %31 = load ptr, ptr %6, align 8, !tbaa !3
  %32 = getelementptr inbounds nuw %struct.Map_NodeStruct_t_, ptr %31, i32 0, i32 5
  %33 = load i32, ptr %32, align 4
  %34 = lshr i32 %33, 5
  %35 = and i32 %34, 65535
  store i32 %35, ptr %4, align 4
  store i32 1, ptr %12, align 4
  br label %163

36:                                               ; preds = %22
  %37 = load ptr, ptr %5, align 8, !tbaa !20
  %38 = getelementptr inbounds nuw %struct.Map_ManStruct_t_, ptr %37, i32 0, i32 26
  %39 = load i32, ptr %38, align 4, !tbaa !99
  %40 = load ptr, ptr %6, align 8, !tbaa !3
  %41 = getelementptr inbounds nuw %struct.Map_NodeStruct_t_, ptr %40, i32 0, i32 3
  store i32 %39, ptr %41, align 4, !tbaa !98
  %42 = load ptr, ptr %5, align 8, !tbaa !20
  %43 = load ptr, ptr %6, align 8, !tbaa !3
  %44 = getelementptr inbounds nuw %struct.Map_NodeStruct_t_, ptr %43, i32 0, i32 9
  %45 = load ptr, ptr %44, align 8, !tbaa !12
  %46 = ptrtoint ptr %45 to i64
  %47 = and i64 %46, -2
  %48 = inttoptr i64 %47 to ptr
  %49 = load i32, ptr %7, align 4, !tbaa !10
  %50 = call i32 @Map_MappingUpdateLevel_rec(ptr noundef %42, ptr noundef %48, i32 noundef %49)
  store i32 %50, ptr %9, align 4, !tbaa !10
  %51 = load ptr, ptr %5, align 8, !tbaa !20
  %52 = load ptr, ptr %6, align 8, !tbaa !3
  %53 = getelementptr inbounds nuw %struct.Map_NodeStruct_t_, ptr %52, i32 0, i32 10
  %54 = load ptr, ptr %53, align 8, !tbaa !18
  %55 = ptrtoint ptr %54 to i64
  %56 = and i64 %55, -2
  %57 = inttoptr i64 %56 to ptr
  %58 = load i32, ptr %7, align 4, !tbaa !10
  %59 = call i32 @Map_MappingUpdateLevel_rec(ptr noundef %51, ptr noundef %57, i32 noundef %58)
  store i32 %59, ptr %10, align 4, !tbaa !10
  %60 = load i32, ptr %9, align 4, !tbaa !10
  %61 = load i32, ptr %10, align 4, !tbaa !10
  %62 = icmp sgt i32 %60, %61
  br i1 %62, label %63, label %65

63:                                               ; preds = %36
  %64 = load i32, ptr %9, align 4, !tbaa !10
  br label %67

65:                                               ; preds = %36
  %66 = load i32, ptr %10, align 4, !tbaa !10
  br label %67

67:                                               ; preds = %65, %63
  %68 = phi i32 [ %64, %63 ], [ %66, %65 ]
  %69 = add nsw i32 1, %68
  %70 = load ptr, ptr %6, align 8, !tbaa !3
  %71 = getelementptr inbounds nuw %struct.Map_NodeStruct_t_, ptr %70, i32 0, i32 5
  %72 = load i32, ptr %71, align 4
  %73 = and i32 %69, 65535
  %74 = shl i32 %73, 5
  %75 = and i32 %72, -2097121
  %76 = or i32 %75, %74
  store i32 %76, ptr %71, align 4
  %77 = load ptr, ptr %6, align 8, !tbaa !3
  %78 = getelementptr inbounds nuw %struct.Map_NodeStruct_t_, ptr %77, i32 0, i32 11
  %79 = load ptr, ptr %78, align 8, !tbaa !19
  %80 = icmp ne ptr %79, null
  br i1 %80, label %81, label %157

81:                                               ; preds = %67
  %82 = load ptr, ptr %5, align 8, !tbaa !20
  %83 = load ptr, ptr %6, align 8, !tbaa !3
  %84 = getelementptr inbounds nuw %struct.Map_NodeStruct_t_, ptr %83, i32 0, i32 11
  %85 = load ptr, ptr %84, align 8, !tbaa !19
  %86 = load i32, ptr %7, align 4, !tbaa !10
  %87 = call i32 @Map_MappingUpdateLevel_rec(ptr noundef %82, ptr noundef %85, i32 noundef %86)
  store i32 %87, ptr %11, align 4, !tbaa !10
  %88 = load i32, ptr %7, align 4, !tbaa !10
  %89 = icmp ne i32 %88, 0
  br i1 %89, label %90, label %108

90:                                               ; preds = %81
  %91 = load ptr, ptr %6, align 8, !tbaa !3
  %92 = getelementptr inbounds nuw %struct.Map_NodeStruct_t_, ptr %91, i32 0, i32 5
  %93 = load i32, ptr %92, align 4
  %94 = lshr i32 %93, 5
  %95 = and i32 %94, 65535
  %96 = load i32, ptr %11, align 4, !tbaa !10
  %97 = icmp ult i32 %95, %96
  br i1 %97, label %98, label %107

98:                                               ; preds = %90
  %99 = load i32, ptr %11, align 4, !tbaa !10
  %100 = load ptr, ptr %6, align 8, !tbaa !3
  %101 = getelementptr inbounds nuw %struct.Map_NodeStruct_t_, ptr %100, i32 0, i32 5
  %102 = load i32, ptr %101, align 4
  %103 = and i32 %99, 65535
  %104 = shl i32 %103, 5
  %105 = and i32 %102, -2097121
  %106 = or i32 %105, %104
  store i32 %106, ptr %101, align 4
  br label %107

107:                                              ; preds = %98, %90
  br label %126

108:                                              ; preds = %81
  %109 = load ptr, ptr %6, align 8, !tbaa !3
  %110 = getelementptr inbounds nuw %struct.Map_NodeStruct_t_, ptr %109, i32 0, i32 5
  %111 = load i32, ptr %110, align 4
  %112 = lshr i32 %111, 5
  %113 = and i32 %112, 65535
  %114 = load i32, ptr %11, align 4, !tbaa !10
  %115 = icmp ugt i32 %113, %114
  br i1 %115, label %116, label %125

116:                                              ; preds = %108
  %117 = load i32, ptr %11, align 4, !tbaa !10
  %118 = load ptr, ptr %6, align 8, !tbaa !3
  %119 = getelementptr inbounds nuw %struct.Map_NodeStruct_t_, ptr %118, i32 0, i32 5
  %120 = load i32, ptr %119, align 4
  %121 = and i32 %117, 65535
  %122 = shl i32 %121, 5
  %123 = and i32 %120, -2097121
  %124 = or i32 %123, %122
  store i32 %124, ptr %119, align 4
  br label %125

125:                                              ; preds = %116, %108
  br label %126

126:                                              ; preds = %125, %107
  %127 = load ptr, ptr %6, align 8, !tbaa !3
  %128 = getelementptr inbounds nuw %struct.Map_NodeStruct_t_, ptr %127, i32 0, i32 12
  %129 = load ptr, ptr %128, align 8, !tbaa !63
  %130 = icmp eq ptr %129, null
  br i1 %130, label %131, label %156

131:                                              ; preds = %126
  %132 = load ptr, ptr %6, align 8, !tbaa !3
  %133 = getelementptr inbounds nuw %struct.Map_NodeStruct_t_, ptr %132, i32 0, i32 11
  %134 = load ptr, ptr %133, align 8, !tbaa !19
  store ptr %134, ptr %8, align 8, !tbaa !3
  br label %135

135:                                              ; preds = %151, %131
  %136 = load ptr, ptr %8, align 8, !tbaa !3
  %137 = icmp ne ptr %136, null
  br i1 %137, label %138, label %155

138:                                              ; preds = %135
  %139 = load ptr, ptr %6, align 8, !tbaa !3
  %140 = getelementptr inbounds nuw %struct.Map_NodeStruct_t_, ptr %139, i32 0, i32 5
  %141 = load i32, ptr %140, align 4
  %142 = lshr i32 %141, 5
  %143 = and i32 %142, 65535
  %144 = load ptr, ptr %8, align 8, !tbaa !3
  %145 = getelementptr inbounds nuw %struct.Map_NodeStruct_t_, ptr %144, i32 0, i32 5
  %146 = load i32, ptr %145, align 4
  %147 = and i32 %143, 65535
  %148 = shl i32 %147, 5
  %149 = and i32 %146, -2097121
  %150 = or i32 %149, %148
  store i32 %150, ptr %145, align 4
  br label %151

151:                                              ; preds = %138
  %152 = load ptr, ptr %8, align 8, !tbaa !3
  %153 = getelementptr inbounds nuw %struct.Map_NodeStruct_t_, ptr %152, i32 0, i32 11
  %154 = load ptr, ptr %153, align 8, !tbaa !19
  store ptr %154, ptr %8, align 8, !tbaa !3
  br label %135, !llvm.loop !100

155:                                              ; preds = %135
  br label %156

156:                                              ; preds = %155, %126
  br label %157

157:                                              ; preds = %156, %67
  %158 = load ptr, ptr %6, align 8, !tbaa !3
  %159 = getelementptr inbounds nuw %struct.Map_NodeStruct_t_, ptr %158, i32 0, i32 5
  %160 = load i32, ptr %159, align 4
  %161 = lshr i32 %160, 5
  %162 = and i32 %161, 65535
  store i32 %162, ptr %4, align 4
  store i32 1, ptr %12, align 4
  br label %163

163:                                              ; preds = %157, %30, %16
  call void @llvm.lifetime.end.p0(i64 4, ptr %11) #4
  call void @llvm.lifetime.end.p0(i64 4, ptr %10) #4
  call void @llvm.lifetime.end.p0(i64 4, ptr %9) #4
  call void @llvm.lifetime.end.p0(i64 8, ptr %8) #4
  %164 = load i32, ptr %4, align 4
  ret i32 %164
}