; Function Attrs: nounwind uwtable
define range(i32 0, 65536) i32 @Map_MappingUpdateLevel_rec(ptr noundef %0, ptr noundef %1, i32 noundef %2) local_unnamed_addr #0 {
  %4 = tail call i32 @Map_NodeIsAnd(ptr noundef %1) #16
  %.not = icmp eq i32 %4, 0
  br i1 %.not, label %5, label %7

5:                                                ; preds = %3
  %6 = getelementptr inbounds nuw i8, ptr %1, i64 28
  br label %.loopexit

7:                                                ; preds = %3
  %8 = getelementptr inbounds nuw i8, ptr %1, i64 20
  %9 = load i32, ptr %8, align 4, !tbaa !89
  %10 = getelementptr inbounds nuw i8, ptr %0, i64 156
  %11 = load i32, ptr %10, align 4, !tbaa !90
  %12 = icmp eq i32 %9, %11
  br i1 %12, label %13, label %15

13:                                               ; preds = %7
  %14 = getelementptr inbounds nuw i8, ptr %1, i64 28
  br label %.loopexit

15:                                               ; preds = %7
  store i32 %11, ptr %8, align 4, !tbaa !89
  %16 = getelementptr inbounds nuw i8, ptr %1, i64 64
  %17 = load ptr, ptr %16, align 8, !tbaa !3
  %18 = ptrtoint ptr %17 to i64
  %19 = and i64 %18, -2
  %20 = inttoptr i64 %19 to ptr
  %21 = tail call i32 @Map_MappingUpdateLevel_rec(ptr noundef nonnull %0, ptr noundef %20, i32 noundef %2)
  %22 = getelementptr inbounds nuw i8, ptr %1, i64 72
  %23 = load ptr, ptr %22, align 8, !tbaa !14
  %24 = ptrtoint ptr %23 to i64
  %25 = and i64 %24, -2
  %26 = inttoptr i64 %25 to ptr
  %27 = tail call i32 @Map_MappingUpdateLevel_rec(ptr noundef nonnull %0, ptr noundef %26, i32 noundef %2)
  %28 = tail call i32 @llvm.umax.i32(i32 %21, i32 %27)
  %29 = getelementptr inbounds nuw i8, ptr %1, i64 28
  %30 = load i32, ptr %29, align 4
  %31 = shl nuw nsw i32 %28, 5
  %32 = add nuw nsw i32 %31, 32
  %33 = and i32 %32, 2097120
  %34 = and i32 %30, -2097121
  %35 = or disjoint i32 %33, %34
  store i32 %35, ptr %29, align 4
  %36 = getelementptr inbounds nuw i8, ptr %1, i64 80
  %37 = load ptr, ptr %36, align 8, !tbaa !15
  %.not42 = icmp eq ptr %37, null
  br i1 %.not42, label %.loopexit, label %38

38:                                               ; preds = %15
  %39 = tail call i32 @Map_MappingUpdateLevel_rec(ptr noundef nonnull %0, ptr noundef nonnull %37, i32 noundef %2)
  %.not43 = icmp eq i32 %2, 0
  %40 = load i32, ptr %29, align 4
  %41 = lshr i32 %40, 5
  %42 = and i32 %41, 65535
  br i1 %.not43, label %45, label %43

43:                                               ; preds = %38
  %44 = icmp samesign ult i32 %42, %39
  br i1 %44, label %.sink.split, label %50

45:                                               ; preds = %38
  %46 = icmp samesign ugt i32 %42, %39
  br i1 %46, label %.sink.split, label %50

.sink.split:                                      ; preds = %45, %43
  %47 = shl nuw nsw i32 %39, 5
  %48 = and i32 %40, -2097121
  %49 = or disjoint i32 %48, %47
  store i32 %49, ptr %29, align 4
  br label %50

50:                                               ; preds = %.sink.split, %45, %43
  %51 = getelementptr inbounds nuw i8, ptr %1, i64 88
  %52 = load ptr, ptr %51, align 8, !tbaa !60
  %53 = icmp eq ptr %52, null
  br i1 %53, label %.preheader, label %.loopexit

.preheader:                                       ; preds = %50
  %.03845 = load ptr, ptr %36, align 8, !tbaa !15
  %.not4446 = icmp eq ptr %.03845, null
  br i1 %.not4446, label %.loopexit, label %.lr.ph

.lr.ph:                                           ; preds = %.preheader, %.lr.ph
  %.03847 = phi ptr [ %.038, %.lr.ph ], [ %.03845, %.preheader ]
  %54 = load i32, ptr %29, align 4
  %55 = and i32 %54, 2097120
  %56 = getelementptr inbounds nuw i8, ptr %.03847, i64 28
  %57 = load i32, ptr %56, align 4
  %58 = and i32 %57, -2097121
  %59 = or disjoint i32 %58, %55
  store i32 %59, ptr %56, align 4
  %60 = getelementptr inbounds nuw i8, ptr %.03847, i64 80
  %.038 = load ptr, ptr %60, align 8, !tbaa !15
  %.not44 = icmp eq ptr %.038, null
  br i1 %.not44, label %.loopexit, label %.lr.ph, !llvm.loop !91

.loopexit:                                        ; preds = %.lr.ph, %.preheader, %15, %50, %13, %5
  %.0.in.in.in = phi ptr [ %14, %13 ], [ %6, %5 ], [ %29, %50 ], [ %29, %15 ], [ %29, %.preheader ], [ %29, %.lr.ph ]
  %.0.in.in = load i32, ptr %.0.in.in.in, align 4
  %.0.in = lshr i32 %.0.in.in, 5
  %.0 = and i32 %.0.in, 65535
  ret i32 %.0
}